target datalayout = "e-m:e-p270:32:32-p271:32:32-p272:64:64-i64:64-i128:128-f80:128-n8:16:32:64-S128"
target triple = "x86_64-pc-linux-gnu"

%struct.PQArgBlock = type { i32, i32, %union.anon }
%union.anon = type { ptr }
%struct.pg_conn = type { ptr, ptr, ptr, ptr, ptr, ptr, ptr, ptr, ptr, ptr, ptr, ptr, ptr, ptr, ptr, ptr, ptr, ptr, ptr, ptr, ptr, ptr, ptr, ptr, ptr, ptr, ptr, ptr, ptr, ptr, ptr, ptr, ptr, ptr, ptr, ptr, ptr, ptr, ptr, ptr, ptr, ptr, ptr, i8, ptr, i32, %struct.PGNoticeHooks, ptr, i32, i32, i32, i32, i32, [6 x i8], i8, i8, i32, i8, i8, i32, i8, i32, ptr, ptr, i32, i32, ptr, ptr, ptr, ptr, ptr, i32, %struct.SockAddr, %struct.SockAddr, i32, i32, i8, i8, i8, i8, i8, i8, ptr, i8, i32, [1 x ptr], i8, i8, ptr, ptr, i32, i32, i32, i8, i8, i32, i32, ptr, i8, i64, ptr, i64, ptr, i32, i32, ptr, i32, i8, i32, i32, i32, i32, ptr, %struct.pg_prng_state, ptr, i32, i32, i32, i32, ptr, i32, i32, i32, i32, ptr, i32, ptr, i8, ptr, ptr, ptr, i32, i8, i8, i8, i8, i8, i8, i8, i8, %struct.PQExpBufferData, i32, %struct.PQExpBufferData }
%struct.PGNoticeHooks = type { ptr, ptr, ptr, ptr }
%struct.SockAddr = type { %struct.sockaddr_storage, i32 }
%struct.sockaddr_storage = type { i16, [118 x i8], i64 }
%struct.pg_prng_state = type { i64, i64 }
%struct.PQExpBufferData = type { ptr, i64, i64 }
%struct.pgLobjfuncs = type { i32, i32, i32, i32, i32, i32, i32, i32, i32, i32, i32, i32, i32 }

; Function Attrs: nounwind uwtable
define i32 @lo_open(ptr noundef %0, i32 noundef %1, i32 noundef %2) #0 {
  %4 = alloca i32, align 4
  %5 = alloca ptr, align 8
  %6 = alloca i32, align 4
  %7 = alloca i32, align 4
  %8 = alloca i32, align 4
  %9 = alloca i32, align 4
  %10 = alloca [2 x %struct.PQArgBlock], align 16
  %11 = alloca ptr, align 8
  %12 = alloca i32, align 4
  store ptr %0, ptr %5, align 8
  store i32 %1, ptr %6, align 4
  store i32 %2, ptr %7, align 4
  call void @llvm.lifetime.start.p0(i64 4, ptr %8) #10
  call void @llvm.lifetime.start.p0(i64 4, ptr %9) #10
  call void @llvm.lifetime.start.p0(i64 32, ptr %10) #10
  call void @llvm.lifetime.start.p0(i64 8, ptr %11) #10
  %13 = load ptr, ptr %5, align 8
  %14 = call i32 @lo_initialize(ptr noundef %13)
  %15 = icmp slt i32 %14, 0
  br i1 %15, label %16, label %17

16:                                               ; preds = %3
  store i32 -1, ptr %4, align 4
  store i32 1, ptr %12, align 4
  br label %48

17:                                               ; preds = %3
  %18 = getelementptr inbounds [2 x %struct.PQArgBlock], ptr %10, i64 0, i64 0
  %19 = getelementptr inbounds nuw %struct.PQArgBlock, ptr %18, i32 0, i32 1
  store i32 1, ptr %19, align 4
  %20 = getelementptr inbounds [2 x %struct.PQArgBlock], ptr %10, i64 0, i64 0
  %21 = getelementptr inbounds nuw %struct.PQArgBlock, ptr %20, i32 0, i32 0
  store i32 4, ptr %21, align 16
  %22 = load i32, ptr %6, align 4
  %23 = getelementptr inbounds [2 x %struct.PQArgBlock], ptr %10, i64 0, i64 0
  %24 = getelementptr inbounds nuw %struct.PQArgBlock, ptr %23, i32 0, i32 2
  store i32 %22, ptr %24, align 8
  %25 = getelementptr inbounds [2 x %struct.PQArgBlock], ptr %10, i64 0, i64 1
  %26 = getelementptr inbounds nuw %struct.PQArgBlock, ptr %25, i32 0, i32 1
  store i32 1, ptr %26, align 4
  %27 = getelementptr inbounds [2 x %struct.PQArgBlock], ptr %10, i64 0, i64 1
  %28 = getelementptr inbounds nuw %struct.PQArgBlock, ptr %27, i32 0, i32 0
  store i32 4, ptr %28, align 16
  %29 = load i32, ptr %7, align 4
  %30 = getelementptr inbounds [2 x %struct.PQArgBlock], ptr %10, i64 0, i64 1
  %31 = getelementptr inbounds nuw %struct.PQArgBlock, ptr %30, i32 0, i32 2
  store i32 %29, ptr %31, align 8
  %32 = load ptr, ptr %5, align 8
  %33 = load ptr, ptr %5, align 8
  %34 = getelementptr inbounds nuw %struct.pg_conn, ptr %33, i32 0, i32 112
  %35 = load ptr, ptr %34, align 8
  %36 = getelementptr inbounds nuw %struct.pgLobjfuncs, ptr %35, i32 0, i32 0
  %37 = load i32, ptr %36, align 4
  %38 = getelementptr inbounds [2 x %struct.PQArgBlock], ptr %10, i64 0, i64 0
  %39 = call ptr @PQfn(ptr noundef %32, i32 noundef %37, ptr noundef %8, ptr noundef %9, i32 noundef 1, ptr noundef %38, i32 noundef 2)
  store ptr %39, ptr %11, align 8
  %40 = load ptr, ptr %11, align 8
  %41 = call i32 @PQresultStatus(ptr noundef %40)
  %42 = icmp eq i32 %41, 1
  br i1 %42, label %43, label %46

43:                                               ; preds = %17
  %44 = load ptr, ptr %11, align 8
  call void @PQclear(ptr noundef %44)
  %45 = load i32, ptr %8, align 4
  store i32 %45, ptr %4, align 4
  store i32 1, ptr %12, align 4
  br label %48

46:                                               ; preds = %17
  %47 = load ptr, ptr %11, align 8
  call void @PQclear(ptr noundef %47)
  store i32 -1, ptr %4, align 4
  store i32 1, ptr %12, align 4
  br label %48

48:                                               ; preds = %46, %43, %16
  call void @llvm.lifetime.end.p0(i64 8, ptr %11) #10
  call void @llvm.lifetime.end.p0(i64 32, ptr %10) #10
  call void @llvm.lifetime.end.p0(i64 4, ptr %9) #10
  call void @llvm.lifetime.end.p0(i64 4, ptr %8) #10
  %49 = load i32, ptr %4, align 4
  ret i32 %49
}