; Function Attrs: nounwind uwtable
define i32 @lo_open(ptr noundef %0, i32 noundef %1, i32 noundef %2) local_unnamed_addr #0 {
  %4 = alloca i32, align 4
  %5 = alloca i32, align 4
  %6 = alloca [2 x %struct.PQArgBlock], align 16
  call void @llvm.lifetime.start.p0(i64 4, ptr nonnull %4) #10
  call void @llvm.lifetime.start.p0(i64 4, ptr nonnull %5) #10
  call void @llvm.lifetime.start.p0(i64 32, ptr nonnull %6) #10
  %7 = tail call fastcc i32 @lo_initialize(ptr noundef %0)
  %8 = icmp slt i32 %7, 0
  br i1 %8, label %22, label %9

9:                                                ; preds = %3
  %10 = getelementptr inbounds nuw i8, ptr %6, i64 4
  store i32 1, ptr %10, align 4
  store i32 4, ptr %6, align 16
  %11 = getelementptr inbounds nuw i8, ptr %6, i64 8
  store i32 %1, ptr %11, align 8
  %12 = getelementptr inbounds nuw i8, ptr %6, i64 16
  %13 = getelementptr inbounds nuw i8, ptr %6, i64 20
  store i32 1, ptr %13, align 4
  store i32 4, ptr %12, align 16
  %14 = getelementptr inbounds nuw i8, ptr %6, i64 24
  store i32 %2, ptr %14, align 8
  %15 = getelementptr inbounds nuw i8, ptr %0, i64 976
  %16 = load ptr, ptr %15, align 8
  %17 = load i32, ptr %16, align 4
  %18 = call ptr @PQfn(ptr noundef %0, i32 noundef %17, ptr noundef nonnull %4, ptr noundef nonnull %5, i32 noundef 1, ptr noundef nonnull %6, i32 noundef 2) #10
  %19 = call i32 @PQresultStatus(ptr noundef %18) #10
  %20 = icmp eq i32 %19, 1
  call void @PQclear(ptr noundef %18) #10
  %21 = load i32, ptr %4, align 4
  %spec.select = select i1 %20, i32 %21, i32 -1
  br label %22

22:                                               ; preds = %9, %3
  %.0 = phi i32 [ -1, %3 ], [ %spec.select, %9 ]
  call void @llvm.lifetime.end.p0(i64 32, ptr nonnull %6) #10
  call void @llvm.lifetime.end.p0(i64 4, ptr nonnull %5) #10
  call void @llvm.lifetime.end.p0(i64 4, ptr nonnull %4) #10
  ret i32 %.0
}